(lp0
S'poi'
p1
aS'salary'
p2
aS'deferral_payments'
p3
aS'total_payments'
p4
aS'exercised_stock_options'
p5
aS'bonus'
p6
aS'restricted_stock'
p7
aS'restricted_stock_deferred'
p8
aS'total_stock_value'
p9
aS'expenses'
p10
aS'loan_advances'
p11
aS'other'
p12
aS'director_fees'
p13
aS'deferred_income'
p14
aS'long_term_incentive'
p15
a.